target datalayout = "e-m:e-p270:32:32-p271:32:32-p272:64:64-i64:64-i128:128-f80:128-n8:16:32:64-S128"
target triple = "x86_64-pc-linux-gnu"

%"struct.duckdb::CompressionState" = type { ptr, %"class.duckdb::CompressionInfo" }
%"class.duckdb::CompressionInfo" = type { i64 }
%"struct.duckdb::string_t" = type { %union.anon.29 }
%union.anon.29 = type { %struct.anon }
%struct.anon = type { i32, [4 x i8], ptr }
%struct.anon.30 = type { i32, [12 x i8] }
%"struct.duckdb::DictionaryAnalyzeState" = type <{ %"class.duckdb::DictionaryCompressionState", i64, i64, i64, i64, %"class.duckdb::StringHeap", %"class.std::unordered_set", i8, i8, [6 x i8] }>
%"class.duckdb::DictionaryCompressionState" = type { %"struct.duckdb::CompressionState" }
%"class.duckdb::StringHeap" = type { %"class.duckdb::ArenaAllocator" }
%"class.duckdb::ArenaAllocator" = type { ptr, i64, %"class.duckdb::unique_ptr.33", ptr, %"class.duckdb::Allocator", i64 }
%"class.duckdb::unique_ptr.33" = type { %"class.std::unique_ptr.34" }
%"class.std::unique_ptr.34" = type { %"struct.std::__uniq_ptr_data.35" }
%"struct.std::__uniq_ptr_data.35" = type { %"class.std::__uniq_ptr_impl.36" }
%"class.std::__uniq_ptr_impl.36" = type { %"class.std::tuple.37" }
%"class.std::tuple.37" = type { %"struct.std::_Tuple_impl.38" }
%"struct.std::_Tuple_impl.38" = type { %"struct.std::_Head_base.41" }
%"struct.std::_Head_base.41" = type { ptr }
%"class.duckdb::Allocator" = type { ptr, ptr, ptr, %"class.duckdb::unique_ptr.42" }
%"class.duckdb::unique_ptr.42" = type { %"class.std::unique_ptr.43" }
%"class.std::unique_ptr.43" = type { %"struct.std::__uniq_ptr_data.44" }
%"struct.std::__uniq_ptr_data.44" = type { %"class.std::__uniq_ptr_impl.45" }
%"class.std::__uniq_ptr_impl.45" = type { %"class.std::tuple.46" }
%"class.std::tuple.46" = type { %"struct.std::_Tuple_impl.47" }
%"struct.std::_Tuple_impl.47" = type { %"struct.std::_Head_base.50" }
%"struct.std::_Head_base.50" = type { ptr }
%"class.std::unordered_set" = type { %"class.std::_Hashtable" }
%"class.std::_Hashtable" = type { ptr, i64, %"struct.std::__detail::_Hash_node_base", i64, %"struct.std::__detail::_Prime_rehash_policy", ptr }
%"struct.std::__detail::_Hash_node_base" = type { ptr }
%"struct.std::__detail::_Prime_rehash_policy" = type { float, i64 }
%"struct.std::pair" = type <{ %"struct.std::__detail::_Node_iterator", i8, [7 x i8] }>
%"struct.std::__detail::_Node_iterator" = type { %"struct.std::__detail::_Node_iterator_base" }
%"struct.std::__detail::_Node_iterator_base" = type { ptr }
%"struct.std::__detail::_Identity" = type { i8 }
%"struct.std::__detail::_AllocNode" = type { ptr }

; Function Attrs: mustprogress nounwind uwtable
define linkonce_odr noundef nonnull align 8 dereferenceable(16) ptr @_ZNSt10_HashtableIN6duckdb8string_tES1_SaIS1_ENSt8__detail9_IdentityENS0_14StringEqualityENS0_10StringHashENS3_18_Mod_range_hashingENS3_20_Default_ranged_hashENS3_20_Prime_rehash_policyENS3_17_Hashtable_traitsILb1ELb1ELb1EEEE14_S_forward_keyEOS1_(ptr noundef nonnull align 8 dereferenceable(16) %0) #3 comdat align 2 {
  %2 = alloca ptr, align 8
  store ptr %0, ptr %2, align 8, !tbaa !81
  %3 = load ptr, ptr %2, align 8, !tbaa !81
  ret ptr %3
}

; Function Attrs: mustprogress nounwind uwtable
define linkonce_odr noundef nonnull align 8 dereferenceable(16) ptr @_ZNKSt8__detail9_IdentityclIN6duckdb8string_tEEEOT_S5_(ptr noundef nonnull align 1 dereferenceable(1) %0, ptr noundef nonnull align 8 dereferenceable(16) %1) #3 comdat align 2 {
  %3 = alloca ptr, align 8
  %4 = alloca ptr, align 8
  store ptr %0, ptr %3, align 8, !tbaa !507
  store ptr %1, ptr %4, align 8, !tbaa !81
  %5 = load ptr, ptr %4, align 8, !tbaa !81
  ret ptr %5
}

; Function Attrs: mustprogress nounwind uwtable
define linkonce_odr noundef nonnull align 8 dereferenceable(16) ptr @_ZNSt10_HashtableIN6duckdb8string_tES1_SaIS1_ENSt8__detail9_IdentityENS0_14StringEqualityENS0_10StringHashENS3_18_Mod_range_hashingENS3_20_Default_ranged_hashENS3_20_Prime_rehash_policyENS3_17_Hashtable_traitsILb1ELb1ELb1EEEE14_S_forward_keyERKS1_(ptr noundef nonnull align 8 dereferenceable(16) %0) #3 comdat align 2 {
  %2 = alloca ptr, align 8
  store ptr %0, ptr %2, align 8, !tbaa !81
  %3 = load ptr, ptr %2, align 8, !tbaa !81
  ret ptr %3
}

; Function Attrs: mustprogress nounwind uwtable
define linkonce_odr noundef nonnull align 8 dereferenceable(16) ptr @_ZNKSt8__detail9_IdentityclIRKN6duckdb8string_tEEEOT_S7_(ptr noundef nonnull align 1 dereferenceable(1) %0, ptr noundef nonnull align 8 dereferenceable(16) %1) #3 comdat align 2 {
  %3 = alloca ptr, align 8
  %4 = alloca ptr, align 8
  store ptr %0, ptr %3, align 8, !tbaa !507
  store ptr %1, ptr %4, align 8, !tbaa !81
  %5 = load ptr, ptr %4, align 8, !tbaa !81
  ret ptr %5
}

; Function Attrs: mustprogress uwtable
define linkonce_odr { ptr, i8 } @_ZNSt10_HashtableIN6duckdb8string_tES1_SaIS1_ENSt8__detail9_IdentityENS0_14StringEqualityENS0_10StringHashENS3_18_Mod_range_hashingENS3_20_Default_ranged_hashENS3_20_Prime_rehash_policyENS3_17_Hashtable_traitsILb1ELb1ELb1EEEE9_M_insertIS1_NS3_10_AllocNodeISaINS3_10_Hash_nodeIS1_Lb1EEEEEEEESt4pairINS3_14_Node_iteratorIS1_Lb1ELb1EEEbEOT_RKT0_St17integral_constantIbLb1EE(ptr noundef nonnull align 8 dereferenceable(56) %0, ptr noundef nonnull align 8 dereferenceable(16) %1, ptr noundef nonnull align 8 dereferenceable(8) %2) #0 comdat align 2 {
  %4 = alloca %"struct.std::pair", align 8
  %5 = alloca ptr, align 8
  %6 = alloca ptr, align 8
  %7 = alloca ptr, align 8
  %8 = alloca %"struct.std::__detail::_Identity", align 1
  %9 = alloca { ptr, i8 }, align 8
  store ptr %0, ptr %5, align 8, !tbaa !325
  store ptr %1, ptr %6, align 8, !tbaa !81
  store ptr %2, ptr %7, align 8, !tbaa !520
  %10 = load ptr, ptr %5, align 8
  call void @llvm.lifetime.start.p0(i64 1, ptr %8) #19
  %11 = load ptr, ptr %6, align 8, !tbaa !81
  %12 = call noundef nonnull align 8 dereferenceable(16) ptr @_ZNKSt8__detail9_IdentityclIN6duckdb8string_tEEEOT_S5_(ptr noundef nonnull align 1 dereferenceable(1) %8, ptr noundef nonnull align 8 dereferenceable(16) %11) #19
  %13 = call noundef nonnull align 8 dereferenceable(16) ptr @_ZNSt10_HashtableIN6duckdb8string_tES1_SaIS1_ENSt8__detail9_IdentityENS0_14StringEqualityENS0_10StringHashENS3_18_Mod_range_hashingENS3_20_Default_ranged_hashENS3_20_Prime_rehash_policyENS3_17_Hashtable_traitsILb1ELb1ELb1EEEE14_S_forward_keyEOS1_(ptr noundef nonnull align 8 dereferenceable(16) %12)
  %14 = load ptr, ptr %6, align 8, !tbaa !81
  %15 = load ptr, ptr %7, align 8, !tbaa !520
  %16 = call { ptr, i8 } @_ZNSt10_HashtableIN6duckdb8string_tES1_SaIS1_ENSt8__detail9_IdentityENS0_14StringEqualityENS0_10StringHashENS3_18_Mod_range_hashingENS3_20_Default_ranged_hashENS3_20_Prime_rehash_policyENS3_17_Hashtable_traitsILb1ELb1ELb1EEEE16_M_insert_uniqueIS1_S1_NS3_10_AllocNodeISaINS3_10_Hash_nodeIS1_Lb1EEEEEEEESt4pairINS3_14_Node_iteratorIS1_Lb1ELb1EEEbEOT_OT0_RKT1_(ptr noundef nonnull align 8 dereferenceable(56) %10, ptr noundef nonnull align 8 dereferenceable(16) %13, ptr noundef nonnull align 8 dereferenceable(16) %14, ptr noundef nonnull align 8 dereferenceable(8) %15)
  store { ptr, i8 } %16, ptr %9, align 8
  call void @llvm.memcpy.p0.p0.i64(ptr align 8 %4, ptr align 8 %9, i64 9, i1 false)
  call void @llvm.lifetime.end.p0(i64 1, ptr %8) #19
  %17 = load { ptr, i8 }, ptr %4, align 8
  ret { ptr, i8 } %17
}

; Function Attrs: mustprogress uwtable
define linkonce_odr { ptr, i8 } @_ZNSt10_HashtableIN6duckdb8string_tES1_SaIS1_ENSt8__detail9_IdentityENS0_14StringEqualityENS0_10StringHashENS3_18_Mod_range_hashingENS3_20_Default_ranged_hashENS3_20_Prime_rehash_policyENS3_17_Hashtable_traitsILb1ELb1ELb1EEEE9_M_insertIRKS1_NS3_10_AllocNodeISaINS3_10_Hash_nodeIS1_Lb1EEEEEEEESt4pairINS3_14_Node_iteratorIS1_Lb1ELb1EEEbEOT_RKT0_St17integral_constantIbLb1EE(ptr noundef nonnull align 8 dereferenceable(56) %0, ptr noundef nonnull align 8 dereferenceable(16) %1, ptr noundef nonnull align 8 dereferenceable(8) %2) #0 comdat align 2 {
  %4 = alloca %"struct.std::pair", align 8
  %5 = alloca ptr, align 8
  %6 = alloca ptr, align 8
  %7 = alloca ptr, align 8
  %8 = alloca %"struct.std::__detail::_Identity", align 1
  %9 = alloca { ptr, i8 }, align 8
  store ptr %0, ptr %5, align 8, !tbaa !325
  store ptr %1, ptr %6, align 8, !tbaa !81
  store ptr %2, ptr %7, align 8, !tbaa !520
  %10 = load ptr, ptr %5, align 8
  call void @llvm.lifetime.start.p0(i64 1, ptr %8) #19
  %11 = load ptr, ptr %6, align 8, !tbaa !81
  %12 = call noundef nonnull align 8 dereferenceable(16) ptr @_ZNKSt8__detail9_IdentityclIRKN6duckdb8string_tEEEOT_S7_(ptr noundef nonnull align 1 dereferenceable(1) %8, ptr noundef nonnull align 8 dereferenceable(16) %11) #19
  %13 = call noundef nonnull align 8 dereferenceable(16) ptr @_ZNSt10_HashtableIN6duckdb8string_tES1_SaIS1_ENSt8__detail9_IdentityENS0_14StringEqualityENS0_10StringHashENS3_18_Mod_range_hashingENS3_20_Default_ranged_hashENS3_20_Prime_rehash_policyENS3_17_Hashtable_traitsILb1ELb1ELb1EEEE14_S_forward_keyERKS1_(ptr noundef nonnull align 8 dereferenceable(16) %12)
  %14 = load ptr, ptr %6, align 8, !tbaa !81
  %15 = load ptr, ptr %7, align 8, !tbaa !520
  %16 = call { ptr, i8 } @_ZNSt10_HashtableIN6duckdb8string_tES1_SaIS1_ENSt8__detail9_IdentityENS0_14StringEqualityENS0_10StringHashENS3_18_Mod_range_hashingENS3_20_Default_ranged_hashENS3_20_Prime_rehash_policyENS3_17_Hashtable_traitsILb1ELb1ELb1EEEE16_M_insert_uniqueIRKS1_SF_NS3_10_AllocNodeISaINS3_10_Hash_nodeIS1_Lb1EEEEEEEESt4pairINS3_14_Node_iteratorIS1_Lb1ELb1EEEbEOT_OT0_RKT1_(ptr noundef nonnull align 8 dereferenceable(56) %10, ptr noundef nonnull align 8 dereferenceable(16) %13, ptr noundef nonnull align 8 dereferenceable(16) %14, ptr noundef nonnull align 8 dereferenceable(8) %15)
  store { ptr, i8 } %16, ptr %9, align 8
  call void @llvm.memcpy.p0.p0.i64(ptr align 8 %4, ptr align 8 %9, i64 9, i1 false)
  call void @llvm.lifetime.end.p0(i64 1, ptr %8) #19
  %17 = load { ptr, i8 }, ptr %4, align 8
  ret { ptr, i8 } %17
}

; Function Attrs: mustprogress nounwind uwtable
define linkonce_odr void @_ZNSt8__detail10_AllocNodeISaINS_10_Hash_nodeIN6duckdb8string_tELb1EEEEEC2ERNS_16_Hashtable_allocIS5_EE(ptr noundef nonnull align 8 dereferenceable(8) %0, ptr noundef nonnull align 1 dereferenceable(1) %1) unnamed_addr #3 comdat align 2 {
  %3 = alloca ptr, align 8
  %4 = alloca ptr, align 8
  store ptr %0, ptr %3, align 8, !tbaa !520
  store ptr %1, ptr %4, align 8, !tbaa !333
  %5 = load ptr, ptr %3, align 8
  %6 = getelementptr inbounds nuw %"struct.std::__detail::_AllocNode", ptr %5, i32 0, i32 0
  %7 = load ptr, ptr %4, align 8, !tbaa !333
  store ptr %7, ptr %6, align 8, !tbaa !333
  ret void
}

; Function Attrs: mustprogress nounwind uwtable
define linkonce_odr noundef nonnull align 8 dereferenceable(56) ptr @_ZNSt8__detail12_Insert_baseIN6duckdb8string_tES2_SaIS2_ENS_9_IdentityENS1_14StringEqualityENS1_10StringHashENS_18_Mod_range_hashingENS_20_Default_ranged_hashENS_20_Prime_rehash_policyENS_17_Hashtable_traitsILb1ELb1ELb1EEEE20_M_conjure_hashtableEv(ptr noundef nonnull align 1 dereferenceable(1) %0) #3 comdat align 2 {
  %2 = alloca ptr, align 8
  store ptr %0, ptr %2, align 8, !tbaa !518
  %3 = load ptr, ptr %2, align 8
  ret ptr %3
}

; Function Attrs: mustprogress uwtable
define linkonce_odr { ptr, i8 } @_ZNSt8__detail7_InsertIN6duckdb8string_tES2_SaIS2_ENS_9_IdentityENS1_14StringEqualityENS1_10StringHashENS_18_Mod_range_hashingENS_20_Default_ranged_hashENS_20_Prime_rehash_policyENS_17_Hashtable_traitsILb1ELb1ELb1EEELb1EE6insertEOS2_(ptr noundef nonnull align 1 dereferenceable(1) %0, ptr noundef nonnull align 8 dereferenceable(16) %1) #0 comdat align 2 {
  %3 = alloca %"struct.std::pair", align 8
  %4 = alloca ptr, align 8
  %5 = alloca ptr, align 8
  %6 = alloca ptr, align 8
  %7 = alloca %"struct.std::__detail::_AllocNode", align 8
  %8 = alloca { ptr, i8 }, align 8
  store ptr %0, ptr %4, align 8, !tbaa !544
  store ptr %1, ptr %5, align 8, !tbaa !81
  %9 = load ptr, ptr %4, align 8
  call void @llvm.lifetime.start.p0(i64 8, ptr %6) #19
  %10 = call noundef nonnull align 8 dereferenceable(56) ptr @_ZNSt8__detail12_Insert_baseIN6duckdb8string_tES2_SaIS2_ENS_9_IdentityENS1_14StringEqualityENS1_10StringHashENS_18_Mod_range_hashingENS_20_Default_ranged_hashENS_20_Prime_rehash_policyENS_17_Hashtable_traitsILb1ELb1ELb1EEEE20_M_conjure_hashtableEv(ptr noundef nonnull align 1 dereferenceable(1) %9)
  store ptr %10, ptr %6, align 8, !tbaa !325
  call void @llvm.lifetime.start.p0(i64 8, ptr %7) #19
  %11 = load ptr, ptr %6, align 8, !tbaa !325
  call void @_ZNSt8__detail10_AllocNodeISaINS_10_Hash_nodeIN6duckdb8string_tELb1EEEEEC2ERNS_16_Hashtable_allocIS5_EE(ptr noundef nonnull align 8 dereferenceable(8) %7, ptr noundef nonnull align 1 dereferenceable(1) %11)
  %12 = load ptr, ptr %6, align 8, !tbaa !325
  %13 = load ptr, ptr %5, align 8, !tbaa !81
  %14 = call { ptr, i8 } @_ZNSt10_HashtableIN6duckdb8string_tES1_SaIS1_ENSt8__detail9_IdentityENS0_14StringEqualityENS0_10StringHashENS3_18_Mod_range_hashingENS3_20_Default_ranged_hashENS3_20_Prime_rehash_policyENS3_17_Hashtable_traitsILb1ELb1ELb1EEEE9_M_insertIS1_NS3_10_AllocNodeISaINS3_10_Hash_nodeIS1_Lb1EEEEEEEESt4pairINS3_14_Node_iteratorIS1_Lb1ELb1EEEbEOT_RKT0_St17integral_constantIbLb1EE(ptr noundef nonnull align 8 dereferenceable(56) %12, ptr noundef nonnull align 8 dereferenceable(16) %13, ptr noundef nonnull align 8 dereferenceable(8) %7)
  store { ptr, i8 } %14, ptr %8, align 8
  call void @llvm.memcpy.p0.p0.i64(ptr align 8 %3, ptr align 8 %8, i64 9, i1 false)
  call void @llvm.lifetime.end.p0(i64 8, ptr %7) #19
  call void @llvm.lifetime.end.p0(i64 8, ptr %6) #19
  %15 = load { ptr, i8 }, ptr %3, align 8
  ret { ptr, i8 } %15
}

; Function Attrs: mustprogress uwtable
define linkonce_odr { ptr, i8 } @_ZNSt8__detail12_Insert_baseIN6duckdb8string_tES2_SaIS2_ENS_9_IdentityENS1_14StringEqualityENS1_10StringHashENS_18_Mod_range_hashingENS_20_Default_ranged_hashENS_20_Prime_rehash_policyENS_17_Hashtable_traitsILb1ELb1ELb1EEEE6insertERKS2_(ptr noundef nonnull align 1 dereferenceable(1) %0, ptr noundef nonnull align 8 dereferenceable(16) %1) #0 comdat align 2 {
  %3 = alloca %"struct.std::pair", align 8
  %4 = alloca ptr, align 8
  %5 = alloca ptr, align 8
  %6 = alloca ptr, align 8
  %7 = alloca %"struct.std::__detail::_AllocNode", align 8
  %8 = alloca { ptr, i8 }, align 8
  store ptr %0, ptr %4, align 8, !tbaa !518
  store ptr %1, ptr %5, align 8, !tbaa !81
  %9 = load ptr, ptr %4, align 8
  call void @llvm.lifetime.start.p0(i64 8, ptr %6) #19
  %10 = call noundef nonnull align 8 dereferenceable(56) ptr @_ZNSt8__detail12_Insert_baseIN6duckdb8string_tES2_SaIS2_ENS_9_IdentityENS1_14StringEqualityENS1_10StringHashENS_18_Mod_range_hashingENS_20_Default_ranged_hashENS_20_Prime_rehash_policyENS_17_Hashtable_traitsILb1ELb1ELb1EEEE20_M_conjure_hashtableEv(ptr noundef nonnull align 1 dereferenceable(1) %9)
  store ptr %10, ptr %6, align 8, !tbaa !325
  call void @llvm.lifetime.start.p0(i64 8, ptr %7) #19
  %11 = load ptr, ptr %6, align 8, !tbaa !325
  call void @_ZNSt8__detail10_AllocNodeISaINS_10_Hash_nodeIN6duckdb8string_tELb1EEEEEC2ERNS_16_Hashtable_allocIS5_EE(ptr noundef nonnull align 8 dereferenceable(8) %7, ptr noundef nonnull align 1 dereferenceable(1) %11)
  %12 = load ptr, ptr %6, align 8, !tbaa !325
  %13 = load ptr, ptr %5, align 8, !tbaa !81
  %14 = call { ptr, i8 } @_ZNSt10_HashtableIN6duckdb8string_tES1_SaIS1_ENSt8__detail9_IdentityENS0_14StringEqualityENS0_10StringHashENS3_18_Mod_range_hashingENS3_20_Default_ranged_hashENS3_20_Prime_rehash_policyENS3_17_Hashtable_traitsILb1ELb1ELb1EEEE9_M_insertIRKS1_NS3_10_AllocNodeISaINS3_10_Hash_nodeIS1_Lb1EEEEEEEESt4pairINS3_14_Node_iteratorIS1_Lb1ELb1EEEbEOT_RKT0_St17integral_constantIbLb1EE(ptr noundef nonnull align 8 dereferenceable(56) %12, ptr noundef nonnull align 8 dereferenceable(16) %13, ptr noundef nonnull align 8 dereferenceable(8) %7)
  store { ptr, i8 } %14, ptr %8, align 8
  call void @llvm.memcpy.p0.p0.i64(ptr align 8 %3, ptr align 8 %8, i64 9, i1 false)
  call void @llvm.lifetime.end.p0(i64 8, ptr %7) #19
  call void @llvm.lifetime.end.p0(i64 8, ptr %6) #19
  %15 = load { ptr, i8 }, ptr %3, align 8
  ret { ptr, i8 } %15
}

; Function Attrs: mustprogress uwtable
define linkonce_odr { ptr, i8 } @_ZNSt13unordered_setIN6duckdb8string_tENS0_10StringHashENS0_14StringEqualityESaIS1_EE6insertEOS1_(ptr noundef nonnull align 8 dereferenceable(56) %0, ptr noundef nonnull align 8 dereferenceable(16) %1) #0 comdat align 2 {
  %3 = alloca %"struct.std::pair", align 8
  %4 = alloca ptr, align 8
  %5 = alloca ptr, align 8
  %6 = alloca { ptr, i8 }, align 8
  store ptr %0, ptr %4, align 8, !tbaa !157
  store ptr %1, ptr %5, align 8, !tbaa !81
  %7 = load ptr, ptr %4, align 8
  %8 = getelementptr inbounds nuw %"class.std::unordered_set", ptr %7, i32 0, i32 0
  %9 = load ptr, ptr %5, align 8, !tbaa !81
  %10 = call { ptr, i8 } @_ZNSt8__detail7_InsertIN6duckdb8string_tES2_SaIS2_ENS_9_IdentityENS1_14StringEqualityENS1_10StringHashENS_18_Mod_range_hashingENS_20_Default_ranged_hashENS_20_Prime_rehash_policyENS_17_Hashtable_traitsILb1ELb1ELb1EEELb1EE6insertEOS2_(ptr noundef nonnull align 1 dereferenceable(1) %8, ptr noundef nonnull align 8 dereferenceable(16) %9)
  store { ptr, i8 } %10, ptr %6, align 8
  call void @llvm.memcpy.p0.p0.i64(ptr align 8 %3, ptr align 8 %6, i64 9, i1 false)
  %11 = load { ptr, i8 }, ptr %3, align 8
  ret { ptr, i8 } %11
}

; Function Attrs: mustprogress uwtable
define linkonce_odr { ptr, i8 } @_ZNSt13unordered_setIN6duckdb8string_tENS0_10StringHashENS0_14StringEqualityESaIS1_EE6insertERKS1_(ptr noundef nonnull align 8 dereferenceable(56) %0, ptr noundef nonnull align 8 dereferenceable(16) %1) #0 comdat align 2 {
  %3 = alloca %"struct.std::pair", align 8
  %4 = alloca ptr, align 8
  %5 = alloca ptr, align 8
  %6 = alloca { ptr, i8 }, align 8
  store ptr %0, ptr %4, align 8, !tbaa !157
  store ptr %1, ptr %5, align 8, !tbaa !81
  %7 = load ptr, ptr %4, align 8
  %8 = getelementptr inbounds nuw %"class.std::unordered_set", ptr %7, i32 0, i32 0
  %9 = load ptr, ptr %5, align 8, !tbaa !81
  %10 = call { ptr, i8 } @_ZNSt8__detail12_Insert_baseIN6duckdb8string_tES2_SaIS2_ENS_9_IdentityENS1_14StringEqualityENS1_10StringHashENS_18_Mod_range_hashingENS_20_Default_ranged_hashENS_20_Prime_rehash_policyENS_17_Hashtable_traitsILb1ELb1ELb1EEEE6insertERKS2_(ptr noundef nonnull align 1 dereferenceable(1) %8, ptr noundef nonnull align 8 dereferenceable(16) %9)
  store { ptr, i8 } %10, ptr %6, align 8
  call void @llvm.memcpy.p0.p0.i64(ptr align 8 %3, ptr align 8 %6, i64 9, i1 false)
  %11 = load { ptr, i8 }, ptr %3, align 8
  ret { ptr, i8 } %11
}

; Function Attrs: mustprogress nounwind uwtable
define linkonce_odr noundef zeroext i1 @_ZNK6duckdb8string_t9IsInlinedEv(ptr noundef nonnull align 8 dereferenceable(16) %0) #3 comdat align 2 {
  %2 = alloca ptr, align 8
  store ptr %0, ptr %2, align 8, !tbaa !81
  %3 = load ptr, ptr %2, align 8
  %4 = call noundef i64 @_ZNK6duckdb8string_t7GetSizeEv(ptr noundef nonnull align 8 dereferenceable(16) %3)
  %5 = icmp ule i64 %4, 12
  ret i1 %5
}

; Function Attrs: mustprogress nounwind uwtable
define linkonce_odr noundef i64 @_ZNK6duckdb8string_t7GetSizeEv(ptr noundef nonnull align 8 dereferenceable(16) %0) #3 comdat align 2 {
  %2 = alloca ptr, align 8
  store ptr %0, ptr %2, align 8, !tbaa !81
  %3 = load ptr, ptr %2, align 8
  %4 = getelementptr inbounds nuw %"struct.duckdb::string_t", ptr %3, i32 0, i32 0
  %5 = getelementptr inbounds nuw %struct.anon.30, ptr %4, i32 0, i32 0
  %6 = load i32, ptr %5, align 8, !tbaa !7
  %7 = zext i32 %6 to i64
  ret i64 %7
}

; Function Attrs: mustprogress uwtable
define void @_ZN6duckdb22DictionaryAnalyzeState12AddNewStringENS_8string_tE(ptr noundef nonnull align 8 dereferenceable(178) %0, i64 %1, ptr %2) unnamed_addr #0 align 2 {
  %4 = alloca %"struct.duckdb::string_t", align 8
  %5 = alloca ptr, align 8
  %6 = alloca %"struct.std::pair", align 8
  %7 = alloca %"struct.duckdb::string_t", align 8
  %8 = alloca %"struct.std::pair", align 8
  %9 = getelementptr inbounds nuw { i64, ptr }, ptr %4, i32 0, i32 0
  store i64 %1, ptr %9, align 8
  %10 = getelementptr inbounds nuw { i64, ptr }, ptr %4, i32 0, i32 1
  store ptr %2, ptr %10, align 8
  store ptr %0, ptr %5, align 8, !tbaa !120
  %11 = load ptr, ptr %5, align 8
  %12 = getelementptr inbounds nuw %"struct.duckdb::DictionaryAnalyzeState", ptr %11, i32 0, i32 2
  %13 = load i64, ptr %12, align 8, !tbaa !152
  %14 = add i64 %13, 1
  store i64 %14, ptr %12, align 8, !tbaa !152
  %15 = getelementptr inbounds nuw %"struct.duckdb::DictionaryAnalyzeState", ptr %11, i32 0, i32 3
  %16 = load i64, ptr %15, align 8, !tbaa !153
  %17 = add i64 %16, 1
  store i64 %17, ptr %15, align 8, !tbaa !153
  %18 = call noundef i64 @_ZNK6duckdb8string_t7GetSizeEv(ptr noundef nonnull align 8 dereferenceable(16) %4)
  %19 = getelementptr inbounds nuw %"struct.duckdb::DictionaryAnalyzeState", ptr %11, i32 0, i32 4
  %20 = load i64, ptr %19, align 8, !tbaa !154
  %21 = add i64 %20, %18
  store i64 %21, ptr %19, align 8, !tbaa !154
  %22 = call noundef zeroext i1 @_ZNK6duckdb8string_t9IsInlinedEv(ptr noundef nonnull align 8 dereferenceable(16) %4)
  br i1 %22, label %23, label %30

23:                                               ; preds = %3
  %24 = getelementptr inbounds nuw %"struct.duckdb::DictionaryAnalyzeState", ptr %11, i32 0, i32 6
  %25 = call { ptr, i8 } @_ZNSt13unordered_setIN6duckdb8string_tENS0_10StringHashENS0_14StringEqualityESaIS1_EE6insertERKS1_(ptr noundef nonnull align 8 dereferenceable(56) %24, ptr noundef nonnull align 8 dereferenceable(16) %4)
  %26 = getelementptr inbounds nuw { ptr, i8 }, ptr %6, i32 0, i32 0
  %27 = extractvalue { ptr, i8 } %25, 0
  store ptr %27, ptr %26, align 8
  %28 = getelementptr inbounds nuw { ptr, i8 }, ptr %6, i32 0, i32 1
  %29 = extractvalue { ptr, i8 } %25, 1
  store i8 %29, ptr %28, align 8
  br label %45

30:                                               ; preds = %3
  %31 = getelementptr inbounds nuw %"struct.duckdb::DictionaryAnalyzeState", ptr %11, i32 0, i32 6
  call void @llvm.lifetime.start.p0(i64 16, ptr %7) #19
  %32 = getelementptr inbounds nuw %"struct.duckdb::DictionaryAnalyzeState", ptr %11, i32 0, i32 5
  %33 = call { i64, ptr } @_ZN6duckdb10StringHeap7AddBlobERKNS_8string_tE(ptr noundef nonnull align 8 dereferenceable(72) %32, ptr noundef nonnull align 8 dereferenceable(16) %4)
  %34 = getelementptr inbounds nuw %"struct.duckdb::string_t", ptr %7, i32 0, i32 0
  %35 = getelementptr inbounds nuw %union.anon.29, ptr %34, i32 0, i32 0
  %36 = getelementptr inbounds nuw { i64, ptr }, ptr %35, i32 0, i32 0
  %37 = extractvalue { i64, ptr } %33, 0
  store i64 %37, ptr %36, align 8
  %38 = getelementptr inbounds nuw { i64, ptr }, ptr %35, i32 0, i32 1
  %39 = extractvalue { i64, ptr } %33, 1
  store ptr %39, ptr %38, align 8
  %40 = call { ptr, i8 } @_ZNSt13unordered_setIN6duckdb8string_tENS0_10StringHashENS0_14StringEqualityESaIS1_EE6insertEOS1_(ptr noundef nonnull align 8 dereferenceable(56) %31, ptr noundef nonnull align 8 dereferenceable(16) %7)
  %41 = getelementptr inbounds nuw { ptr, i8 }, ptr %8, i32 0, i32 0
  %42 = extractvalue { ptr, i8 } %40, 0
  store ptr %42, ptr %41, align 8
  %43 = getelementptr inbounds nuw { ptr, i8 }, ptr %8, i32 0, i32 1
  %44 = extractvalue { ptr, i8 } %40, 1
  store i8 %44, ptr %43, align 8
  call void @llvm.lifetime.end.p0(i64 16, ptr %7) #19
  br label %45

45:                                               ; preds = %30, %23
  %46 = getelementptr inbounds nuw %"struct.duckdb::DictionaryAnalyzeState", ptr %11, i32 0, i32 8
  %47 = load i8, ptr %46, align 1, !tbaa !156
  %48 = getelementptr inbounds nuw %"struct.duckdb::DictionaryAnalyzeState", ptr %11, i32 0, i32 7
  store i8 %47, ptr %48, align 8, !tbaa !155
  ret void
}