; Function Attrs: mustprogress uwtable
define void @_ZN6duckdb22DictionaryAnalyzeState12AddNewStringENS_8string_tE(ptr noundef nonnull align 8 dereferenceable(178) %0, i64 %1, ptr %2) unnamed_addr #0 align 2 {
  %4 = alloca %"struct.std::__detail::_AllocNode", align 8
  %5 = alloca %"struct.std::__detail::_AllocNode", align 8
  %6 = alloca %"struct.duckdb::string_t", align 8
  %7 = alloca %"struct.duckdb::string_t", align 8
  store i64 %1, ptr %6, align 8
  %8 = getelementptr inbounds nuw i8, ptr %6, i64 8
  store ptr %2, ptr %8, align 8
  %9 = getelementptr inbounds nuw i8, ptr %0, i64 24
  %10 = load i64, ptr %9, align 8, !tbaa !106
  %11 = add i64 %10, 1
  store i64 %11, ptr %9, align 8, !tbaa !106
  %12 = getelementptr inbounds nuw i8, ptr %0, i64 32
  %13 = load i64, ptr %12, align 8, !tbaa !130
  %14 = add i64 %13, 1
  store i64 %14, ptr %12, align 8, !tbaa !130
  %15 = trunc i64 %1 to i32
  %16 = and i64 %1, 4294967295
  %17 = getelementptr inbounds nuw i8, ptr %0, i64 40
  %18 = load i64, ptr %17, align 8, !tbaa !131
  %19 = add i64 %18, %16
  store i64 %19, ptr %17, align 8, !tbaa !131
  %20 = icmp ult i32 %15, 13
  %21 = getelementptr inbounds nuw i8, ptr %0, i64 120
  br i1 %20, label %22, label %24

22:                                               ; preds = %3
  call void @llvm.lifetime.start.p0(i64 8, ptr nonnull %5) #28
  store ptr %21, ptr %5, align 8, !tbaa !132
  %23 = call { ptr, i8 } @_ZNSt10_HashtableIN6duckdb8string_tES1_SaIS1_ENSt8__detail9_IdentityENS0_14StringEqualityENS0_10StringHashENS3_18_Mod_range_hashingENS3_20_Default_ranged_hashENS3_20_Prime_rehash_policyENS3_17_Hashtable_traitsILb1ELb1ELb1EEEE16_M_insert_uniqueIRKS1_SF_NS3_10_AllocNodeISaINS3_10_Hash_nodeIS1_Lb1EEEEEEEESt4pairINS3_14_Node_iteratorIS1_Lb1ELb1EEEbEOT_OT0_RKT1_(ptr noundef nonnull align 8 dereferenceable(56) %21, ptr noundef nonnull align 8 dereferenceable(16) %6, ptr noundef nonnull align 8 dereferenceable(16) %6, ptr noundef nonnull align 8 dereferenceable(8) %5)
  call void @llvm.lifetime.end.p0(i64 8, ptr nonnull %5) #28
  br label %31

24:                                               ; preds = %3
  call void @llvm.lifetime.start.p0(i64 16, ptr nonnull %7) #28
  %25 = getelementptr inbounds nuw i8, ptr %0, i64 48
  %26 = call { i64, ptr } @_ZN6duckdb10StringHeap7AddBlobERKNS_8string_tE(ptr noundef nonnull align 8 dereferenceable(72) %25, ptr noundef nonnull align 8 dereferenceable(16) %6)
  %27 = extractvalue { i64, ptr } %26, 0
  store i64 %27, ptr %7, align 8
  %28 = getelementptr inbounds nuw i8, ptr %7, i64 8
  %29 = extractvalue { i64, ptr } %26, 1
  store ptr %29, ptr %28, align 8
  call void @llvm.lifetime.start.p0(i64 8, ptr nonnull %4) #28
  store ptr %21, ptr %4, align 8, !tbaa !132
  %30 = call { ptr, i8 } @_ZNSt10_HashtableIN6duckdb8string_tES1_SaIS1_ENSt8__detail9_IdentityENS0_14StringEqualityENS0_10StringHashENS3_18_Mod_range_hashingENS3_20_Default_ranged_hashENS3_20_Prime_rehash_policyENS3_17_Hashtable_traitsILb1ELb1ELb1EEEE16_M_insert_uniqueIS1_S1_NS3_10_AllocNodeISaINS3_10_Hash_nodeIS1_Lb1EEEEEEEESt4pairINS3_14_Node_iteratorIS1_Lb1ELb1EEEbEOT_OT0_RKT1_(ptr noundef nonnull align 8 dereferenceable(56) %21, ptr noundef nonnull align 8 dereferenceable(16) %7, ptr noundef nonnull align 8 dereferenceable(16) %7, ptr noundef nonnull align 8 dereferenceable(8) %4)
  call void @llvm.lifetime.end.p0(i64 8, ptr nonnull %4) #28
  call void @llvm.lifetime.end.p0(i64 16, ptr nonnull %7) #28
  br label %31

31:                                               ; preds = %24, %22
  %32 = getelementptr inbounds nuw i8, ptr %0, i64 177
  %33 = load i8, ptr %32, align 1, !tbaa !134
  %34 = getelementptr inbounds nuw i8, ptr %0, i64 176
  store i8 %33, ptr %34, align 8, !tbaa !135
  ret void
}